(lp0
S'http://boxofficemojo.com/movies/?id=behavingbadly.htm'
p1
aS'http://boxofficemojo.com/movies/?id=cheechandchongscorsicanbros..htm'
p2
aS'http://boxofficemojo.com/movies/?id=likefatherlikeson.htm'
p3
aS'http://boxofficemojo.com/movies/?id=mymotherlikeswomen.htm'
p4
aS'http://boxofficemojo.com/movies/?id=sheshavingababy.htm'
p5
aS'http://boxofficemojo.com/movies/?id=yugioh.htm'
p6
a.